target datalayout = "e-m:e-p270:32:32-p271:32:32-p272:64:64-i64:64-i128:128-f80:128-n8:16:32:64-S128"
target triple = "x86_64-pc-linux-gnu"

%class.Register = type { i32 }
%class.Label = type <{ i32, [4 x i32], i32, ptr, i8, [7 x i8] }>

@.str = private unnamed_addr constant [43 x i8] c"src/hotspot/cpu/x86/macroAssembler_x86.cpp\00", align 1
@UsePopCountInstruction = external global i8, align 1

; Function Attrs: mustprogress nounwind uwtable
define linkonce_odr hidden void @_ZN5Label4initEv(ptr noundef nonnull align 8 dereferenceable(33) %0) #1 comdat align 2 {
  %2 = alloca ptr, align 8
  store ptr %0, ptr %2, align 8
  %3 = load ptr, ptr %2, align 8
  %4 = getelementptr inbounds %class.Label, ptr %3, i32 0, i32 0
  store i32 -1, ptr %4, align 8
  %5 = getelementptr inbounds %class.Label, ptr %3, i32 0, i32 2
  store i32 0, ptr %5, align 4
  %6 = getelementptr inbounds %class.Label, ptr %3, i32 0, i32 3
  store ptr null, ptr %6, align 8
  %7 = getelementptr inbounds %class.Label, ptr %3, i32 0, i32 4
  store i8 0, ptr %7, align 8
  ret void
}

; Function Attrs: mustprogress nounwind uwtable
define linkonce_odr hidden void @_ZN5LabelD2Ev(ptr noundef nonnull align 8 dereferenceable(33) %0) unnamed_addr #1 comdat align 2 {
  %2 = alloca ptr, align 8
  store ptr %0, ptr %2, align 8
  ret void
}

; Function Attrs: mustprogress nounwind uwtable
define linkonce_odr hidden void @_ZN5LabelC2Ev(ptr noundef nonnull align 8 dereferenceable(33) %0) unnamed_addr #1 comdat align 2 {
  %2 = alloca ptr, align 8
  store ptr %0, ptr %2, align 8
  %3 = load ptr, ptr %2, align 8
  call void @_ZN5Label4initEv(ptr noundef nonnull align 8 dereferenceable(33) %3)
  ret void
}

; Function Attrs: mustprogress nounwind uwtable
define linkonce_odr hidden void @_Z26assert_different_registersI8RegisterJS0_S0_EEvT_DpT0_(i32 %0, i32 %1, i32 %2) #1 comdat {
  %4 = alloca %class.Register, align 4
  %5 = alloca %class.Register, align 4
  %6 = alloca %class.Register, align 4
  %7 = getelementptr inbounds %class.Register, ptr %4, i32 0, i32 0
  store i32 %0, ptr %7, align 4
  %8 = getelementptr inbounds %class.Register, ptr %5, i32 0, i32 0
  store i32 %1, ptr %8, align 4
  %9 = getelementptr inbounds %class.Register, ptr %6, i32 0, i32 0
  store i32 %2, ptr %9, align 4
  ret void
}

; Function Attrs: mustprogress nounwind uwtable
define hidden void @_ZN14MacroAssembler16population_countE8RegisterS0_S0_S0_(ptr noundef nonnull align 8 dereferenceable(40) %0, i32 %1, i32 %2, i32 %3, i32 %4) #1 align 2 {
  %6 = alloca %class.Register, align 4
  %7 = alloca %class.Register, align 4
  %8 = alloca %class.Register, align 4
  %9 = alloca %class.Register, align 4
  %10 = alloca ptr, align 8
  %11 = alloca %class.Register, align 4
  %12 = alloca %class.Register, align 4
  %13 = alloca %class.Register, align 4
  %14 = alloca %class.Register, align 4
  %15 = alloca %class.Register, align 4
  %16 = alloca %class.Register, align 4
  %17 = alloca %class.Register, align 4
  %18 = alloca %class.Register, align 4
  %19 = alloca %class.Register, align 4
  %20 = alloca %class.Register, align 4
  %21 = alloca %class.Register, align 4
  %22 = alloca %class.Label, align 8
  %23 = alloca %class.Label, align 8
  %24 = alloca %class.Register, align 4
  %25 = alloca %class.Register, align 4
  %26 = alloca %class.Register, align 4
  %27 = alloca %class.Register, align 4
  %28 = alloca %class.Register, align 4
  %29 = alloca %class.Register, align 4
  %30 = alloca %class.Register, align 4
  %31 = alloca %class.Register, align 4
  %32 = alloca %class.Register, align 4
  %33 = alloca %class.Register, align 4
  %34 = alloca %class.Register, align 4
  %35 = alloca %class.Register, align 4
  %36 = getelementptr inbounds %class.Register, ptr %6, i32 0, i32 0
  store i32 %1, ptr %36, align 4
  %37 = getelementptr inbounds %class.Register, ptr %7, i32 0, i32 0
  store i32 %2, ptr %37, align 4
  %38 = getelementptr inbounds %class.Register, ptr %8, i32 0, i32 0
  store i32 %3, ptr %38, align 4
  %39 = getelementptr inbounds %class.Register, ptr %9, i32 0, i32 0
  store i32 %4, ptr %39, align 4
  store ptr %0, ptr %10, align 8
  %40 = load ptr, ptr %10, align 8
  call void @llvm.memcpy.p0.p0.i64(ptr align 4 %11, ptr align 4 %7, i64 4, i1 false)
  call void @llvm.memcpy.p0.p0.i64(ptr align 4 %12, ptr align 4 %8, i64 4, i1 false)
  call void @llvm.memcpy.p0.p0.i64(ptr align 4 %13, ptr align 4 %9, i64 4, i1 false)
  %41 = getelementptr inbounds %class.Register, ptr %11, i32 0, i32 0
  %42 = load i32, ptr %41, align 4
  %43 = getelementptr inbounds %class.Register, ptr %12, i32 0, i32 0
  %44 = load i32, ptr %43, align 4
  %45 = getelementptr inbounds %class.Register, ptr %13, i32 0, i32 0
  %46 = load i32, ptr %45, align 4
  call void @_Z26assert_different_registersI8RegisterJS0_S0_EEvT_DpT0_(i32 %42, i32 %44, i32 %46)
  %47 = load i8, ptr @UsePopCountInstruction, align 1
  %48 = trunc i8 %47 to i1
  br i1 %48, label %49, label %54

49:                                               ; preds = %5
  call void @llvm.memcpy.p0.p0.i64(ptr align 4 %14, ptr align 4 %6, i64 4, i1 false)
  call void @llvm.memcpy.p0.p0.i64(ptr align 4 %15, ptr align 4 %7, i64 4, i1 false)
  %50 = getelementptr inbounds %class.Register, ptr %14, i32 0, i32 0
  %51 = load i32, ptr %50, align 4
  %52 = getelementptr inbounds %class.Register, ptr %15, i32 0, i32 0
  %53 = load i32, ptr %52, align 4
  call void @_ZN9Assembler7popcntqE8RegisterS0_(ptr noundef nonnull align 8 dereferenceable(40) %40, i32 %51, i32 %53)
  br label %91

54:                                               ; preds = %5
  call void @llvm.memcpy.p0.p0.i64(ptr align 4 %16, ptr align 4 %7, i64 4, i1 false)
  call void @llvm.memcpy.p0.p0.i64(ptr align 4 %17, ptr align 4 %8, i64 4, i1 false)
  call void @llvm.memcpy.p0.p0.i64(ptr align 4 %18, ptr align 4 %9, i64 4, i1 false)
  %55 = getelementptr inbounds %class.Register, ptr %16, i32 0, i32 0
  %56 = load i32, ptr %55, align 4
  %57 = getelementptr inbounds %class.Register, ptr %17, i32 0, i32 0
  %58 = load i32, ptr %57, align 4
  %59 = getelementptr inbounds %class.Register, ptr %18, i32 0, i32 0
  %60 = load i32, ptr %59, align 4
  call void @_Z26assert_different_registersI8RegisterJS0_S0_EEvT_DpT0_(i32 %56, i32 %58, i32 %60)
  call void @llvm.memcpy.p0.p0.i64(ptr align 4 %19, ptr align 4 %6, i64 4, i1 false)
  call void @llvm.memcpy.p0.p0.i64(ptr align 4 %20, ptr align 4 %8, i64 4, i1 false)
  call void @llvm.memcpy.p0.p0.i64(ptr align 4 %21, ptr align 4 %9, i64 4, i1 false)
  %61 = getelementptr inbounds %class.Register, ptr %19, i32 0, i32 0
  %62 = load i32, ptr %61, align 4
  %63 = getelementptr inbounds %class.Register, ptr %20, i32 0, i32 0
  %64 = load i32, ptr %63, align 4
  %65 = getelementptr inbounds %class.Register, ptr %21, i32 0, i32 0
  %66 = load i32, ptr %65, align 4
  call void @_Z26assert_different_registersI8RegisterJS0_S0_EEvT_DpT0_(i32 %62, i32 %64, i32 %66)
  call void @_ZN5LabelC2Ev(ptr noundef nonnull align 8 dereferenceable(33) %22)
  call void @_ZN5LabelC2Ev(ptr noundef nonnull align 8 dereferenceable(33) %23)
  call void @llvm.memcpy.p0.p0.i64(ptr align 4 %24, ptr align 4 %8, i64 4, i1 false)
  call void @llvm.memcpy.p0.p0.i64(ptr align 4 %25, ptr align 4 %7, i64 4, i1 false)
  %67 = getelementptr inbounds %class.Register, ptr %24, i32 0, i32 0
  %68 = load i32, ptr %67, align 4
  %69 = getelementptr inbounds %class.Register, ptr %25, i32 0, i32 0
  %70 = load i32, ptr %69, align 4
  call void @_ZN9Assembler3movE8RegisterS0_(ptr noundef nonnull align 8 dereferenceable(40) %40, i32 %68, i32 %70)
  call void @llvm.memcpy.p0.p0.i64(ptr align 4 %26, ptr align 4 %6, i64 4, i1 false)
  call void @llvm.memcpy.p0.p0.i64(ptr align 4 %27, ptr align 4 %6, i64 4, i1 false)
  %71 = getelementptr inbounds %class.Register, ptr %26, i32 0, i32 0
  %72 = load i32, ptr %71, align 4
  %73 = getelementptr inbounds %class.Register, ptr %27, i32 0, i32 0
  %74 = load i32, ptr %73, align 4
  call void @_ZN9Assembler4xorlE8RegisterS0_(ptr noundef nonnull align 8 dereferenceable(40) %40, i32 %72, i32 %74)
  call void @llvm.memcpy.p0.p0.i64(ptr align 4 %28, ptr align 4 %8, i64 4, i1 false)
  call void @llvm.memcpy.p0.p0.i64(ptr align 4 %29, ptr align 4 %8, i64 4, i1 false)
  %75 = getelementptr inbounds %class.Register, ptr %28, i32 0, i32 0
  %76 = load i32, ptr %75, align 4
  %77 = getelementptr inbounds %class.Register, ptr %29, i32 0, i32 0
  %78 = load i32, ptr %77, align 4
  call void @_ZN9Assembler5testqE8RegisterS0_(ptr noundef nonnull align 8 dereferenceable(40) %40, i32 %76, i32 %78)
  call void @_ZN9Assembler6jccb_0ENS_9ConditionER5LabelPKci(ptr noundef nonnull align 8 dereferenceable(40) %40, i32 noundef 4, ptr noundef nonnull align 8 dereferenceable(33) %23, ptr noundef @.str, i32 noundef 4766)
  call void @_ZN17AbstractAssembler4bindER5Label(ptr noundef nonnull align 8 dereferenceable(24) %40, ptr noundef nonnull align 8 dereferenceable(33) %22)
  call void @llvm.memcpy.p0.p0.i64(ptr align 4 %30, ptr align 4 %6, i64 4, i1 false)
  %79 = getelementptr inbounds %class.Register, ptr %30, i32 0, i32 0
  %80 = load i32, ptr %79, align 4
  call void @_ZN9Assembler4incqE8Register(ptr noundef nonnull align 8 dereferenceable(40) %40, i32 %80)
  call void @llvm.memcpy.p0.p0.i64(ptr align 4 %31, ptr align 4 %9, i64 4, i1 false)
  call void @llvm.memcpy.p0.p0.i64(ptr align 4 %32, ptr align 4 %8, i64 4, i1 false)
  %81 = getelementptr inbounds %class.Register, ptr %31, i32 0, i32 0
  %82 = load i32, ptr %81, align 4
  %83 = getelementptr inbounds %class.Register, ptr %32, i32 0, i32 0
  %84 = load i32, ptr %83, align 4
  call void @_ZN9Assembler4movqE8RegisterS0_(ptr noundef nonnull align 8 dereferenceable(40) %40, i32 %82, i32 %84)
  call void @llvm.memcpy.p0.p0.i64(ptr align 4 %33, ptr align 4 %9, i64 4, i1 false)
  %85 = getelementptr inbounds %class.Register, ptr %33, i32 0, i32 0
  %86 = load i32, ptr %85, align 4
  call void @_ZN9Assembler4decqE8Register(ptr noundef nonnull align 8 dereferenceable(40) %40, i32 %86)
  call void @llvm.memcpy.p0.p0.i64(ptr align 4 %34, ptr align 4 %8, i64 4, i1 false)
  call void @llvm.memcpy.p0.p0.i64(ptr align 4 %35, ptr align 4 %9, i64 4, i1 false)
  %87 = getelementptr inbounds %class.Register, ptr %34, i32 0, i32 0
  %88 = load i32, ptr %87, align 4
  %89 = getelementptr inbounds %class.Register, ptr %35, i32 0, i32 0
  %90 = load i32, ptr %89, align 4
  call void @_ZN9Assembler4andqE8RegisterS0_(ptr noundef nonnull align 8 dereferenceable(40) %40, i32 %88, i32 %90)
  call void @_ZN9Assembler6jccb_0ENS_9ConditionER5LabelPKci(ptr noundef nonnull align 8 dereferenceable(40) %40, i32 noundef 5, ptr noundef nonnull align 8 dereferenceable(33) %22, ptr noundef @.str, i32 noundef 4773)
  call void @_ZN17AbstractAssembler4bindER5Label(ptr noundef nonnull align 8 dereferenceable(24) %40, ptr noundef nonnull align 8 dereferenceable(33) %23)
  call void @_ZN5LabelD2Ev(ptr noundef nonnull align 8 dereferenceable(33) %23) #7
  call void @_ZN5LabelD2Ev(ptr noundef nonnull align 8 dereferenceable(33) %22) #7
  br label %91

91:                                               ; preds = %54, %49
  ret void
}