; Function Attrs: mustprogress nounwind uwtable
define hidden void @_ZN14MacroAssembler16population_countE8RegisterS0_S0_S0_(ptr noundef nonnull align 8 dereferenceable(40) %0, i32 %1, i32 %2, i32 %3, i32 %4) local_unnamed_addr #0 align 2 {
  %6 = alloca %class.Label, align 8
  %7 = alloca %class.Label, align 8
  %8 = load i8, ptr @UsePopCountInstruction, align 1
  %9 = trunc i8 %8 to i1
  br i1 %9, label %10, label %11

10:                                               ; preds = %5
  tail call void @_ZN9Assembler7popcntqE8RegisterS0_(ptr noundef nonnull align 8 dereferenceable(40) %0, i32 %1, i32 %2) #18
  br label %18

11:                                               ; preds = %5
  store i32 -1, ptr %6, align 8
  %12 = getelementptr inbounds i8, ptr %6, i64 20
  store i32 0, ptr %12, align 4
  %13 = getelementptr inbounds i8, ptr %6, i64 24
  store ptr null, ptr %13, align 8
  %14 = getelementptr inbounds i8, ptr %6, i64 32
  store i8 0, ptr %14, align 8
  store i32 -1, ptr %7, align 8
  %15 = getelementptr inbounds i8, ptr %7, i64 20
  store i32 0, ptr %15, align 4
  %16 = getelementptr inbounds i8, ptr %7, i64 24
  store ptr null, ptr %16, align 8
  %17 = getelementptr inbounds i8, ptr %7, i64 32
  store i8 0, ptr %17, align 8
  tail call void @_ZN9Assembler3movE8RegisterS0_(ptr noundef nonnull align 8 dereferenceable(40) %0, i32 %3, i32 %2) #18
  tail call void @_ZN9Assembler4xorlE8RegisterS0_(ptr noundef nonnull align 8 dereferenceable(40) %0, i32 %1, i32 %1) #18
  tail call void @_ZN9Assembler5testqE8RegisterS0_(ptr noundef nonnull align 8 dereferenceable(40) %0, i32 %3, i32 %3) #18
  call void @_ZN9Assembler6jccb_0ENS_9ConditionER5LabelPKci(ptr noundef nonnull align 8 dereferenceable(40) %0, i32 noundef 4, ptr noundef nonnull align 8 dereferenceable(33) %7, ptr noundef nonnull @.str, i32 noundef 4766) #18
  call void @_ZN17AbstractAssembler4bindER5Label(ptr noundef nonnull align 8 dereferenceable(24) %0, ptr noundef nonnull align 8 dereferenceable(33) %6) #18
  call void @_ZN9Assembler4incqE8Register(ptr noundef nonnull align 8 dereferenceable(40) %0, i32 %1) #18
  call void @_ZN9Assembler4movqE8RegisterS0_(ptr noundef nonnull align 8 dereferenceable(40) %0, i32 %4, i32 %3) #18
  call void @_ZN9Assembler4decqE8Register(ptr noundef nonnull align 8 dereferenceable(40) %0, i32 %4) #18
  call void @_ZN9Assembler4andqE8RegisterS0_(ptr noundef nonnull align 8 dereferenceable(40) %0, i32 %3, i32 %4) #18
  call void @_ZN9Assembler6jccb_0ENS_9ConditionER5LabelPKci(ptr noundef nonnull align 8 dereferenceable(40) %0, i32 noundef 5, ptr noundef nonnull align 8 dereferenceable(33) %6, ptr noundef nonnull @.str, i32 noundef 4773) #18
  call void @_ZN17AbstractAssembler4bindER5Label(ptr noundef nonnull align 8 dereferenceable(24) %0, ptr noundef nonnull align 8 dereferenceable(33) %7) #18
  br label %18

18:                                               ; preds = %11, %10
  ret void
}